target datalayout = "e-m:e-p270:32:32-p271:32:32-p272:64:64-i64:64-i128:128-f80:128-n8:16:32:64-S128"
target triple = "x86_64-pc-linux-gnu"

%struct.ARKodeSPRKTableMem = type { i32, i32, ptr, ptr }

; Function Attrs: nounwind uwtable
define void @ARKodeSPRKTable_Free(ptr noundef %0) #0 {
  %2 = alloca ptr, align 8
  store ptr %0, ptr %2, align 8, !tbaa !10
  %3 = load ptr, ptr %2, align 8, !tbaa !10
  %4 = icmp ne ptr %3, null
  br i1 %4, label %5, label %25

5:                                                ; preds = %1
  %6 = load ptr, ptr %2, align 8, !tbaa !10
  %7 = getelementptr inbounds nuw %struct.ARKodeSPRKTableMem, ptr %6, i32 0, i32 3
  %8 = load ptr, ptr %7, align 8, !tbaa !18
  %9 = icmp ne ptr %8, null
  br i1 %9, label %10, label %14

10:                                               ; preds = %5
  %11 = load ptr, ptr %2, align 8, !tbaa !10
  %12 = getelementptr inbounds nuw %struct.ARKodeSPRKTableMem, ptr %11, i32 0, i32 3
  %13 = load ptr, ptr %12, align 8, !tbaa !18
  call void @free(ptr noundef %13) #8
  br label %14

14:                                               ; preds = %10, %5
  %15 = load ptr, ptr %2, align 8, !tbaa !10
  %16 = getelementptr inbounds nuw %struct.ARKodeSPRKTableMem, ptr %15, i32 0, i32 2
  %17 = load ptr, ptr %16, align 8, !tbaa !17
  %18 = icmp ne ptr %17, null
  br i1 %18, label %19, label %23

19:                                               ; preds = %14
  %20 = load ptr, ptr %2, align 8, !tbaa !10
  %21 = getelementptr inbounds nuw %struct.ARKodeSPRKTableMem, ptr %20, i32 0, i32 2
  %22 = load ptr, ptr %21, align 8, !tbaa !17
  call void @free(ptr noundef %22) #8
  br label %23

23:                                               ; preds = %19, %14
  %24 = load ptr, ptr %2, align 8, !tbaa !10
  call void @free(ptr noundef %24) #8
  br label %25

25:                                               ; preds = %23, %1
  ret void
}

; Function Attrs: nounwind uwtable
define ptr @ARKodeSPRKTable_Alloc(i32 noundef %0) #0 {
  %2 = alloca ptr, align 8
  %3 = alloca i32, align 4
  %4 = alloca ptr, align 8
  %5 = alloca i32, align 4
  store i32 %0, ptr %3, align 4, !tbaa !3
  call void @llvm.lifetime.start.p0(i64 8, ptr %4) #8
  store ptr null, ptr %4, align 8, !tbaa !10
  %6 = call noalias ptr @malloc(i64 noundef 24) #9
  store ptr %6, ptr %4, align 8, !tbaa !10
  %7 = load ptr, ptr %4, align 8, !tbaa !10
  %8 = icmp ne ptr %7, null
  br i1 %8, label %10, label %9

9:                                                ; preds = %1
  store ptr null, ptr %2, align 8
  store i32 1, ptr %5, align 4
  br label %42

10:                                               ; preds = %1
  %11 = load ptr, ptr %4, align 8, !tbaa !10
  call void @llvm.memset.p0.i64(ptr align 8 %11, i8 0, i64 24, i1 false)
  %12 = load i32, ptr %3, align 4, !tbaa !3
  %13 = sext i32 %12 to i64
  %14 = mul i64 %13, 8
  %15 = call noalias ptr @malloc(i64 noundef %14) #9
  %16 = load ptr, ptr %4, align 8, !tbaa !10
  %17 = getelementptr inbounds nuw %struct.ARKodeSPRKTableMem, ptr %16, i32 0, i32 3
  store ptr %15, ptr %17, align 8, !tbaa !18
  %18 = load ptr, ptr %4, align 8, !tbaa !10
  %19 = getelementptr inbounds nuw %struct.ARKodeSPRKTableMem, ptr %18, i32 0, i32 3
  %20 = load ptr, ptr %19, align 8, !tbaa !18
  %21 = icmp ne ptr %20, null
  br i1 %21, label %24, label %22

22:                                               ; preds = %10
  %23 = load ptr, ptr %4, align 8, !tbaa !10
  call void @ARKodeSPRKTable_Free(ptr noundef %23)
  store ptr null, ptr %2, align 8
  store i32 1, ptr %5, align 4
  br label %42

24:                                               ; preds = %10
  %25 = load i32, ptr %3, align 4, !tbaa !3
  %26 = sext i32 %25 to i64
  %27 = mul i64 %26, 8
  %28 = call noalias ptr @malloc(i64 noundef %27) #9
  %29 = load ptr, ptr %4, align 8, !tbaa !10
  %30 = getelementptr inbounds nuw %struct.ARKodeSPRKTableMem, ptr %29, i32 0, i32 2
  store ptr %28, ptr %30, align 8, !tbaa !17
  %31 = load ptr, ptr %4, align 8, !tbaa !10
  %32 = getelementptr inbounds nuw %struct.ARKodeSPRKTableMem, ptr %31, i32 0, i32 2
  %33 = load ptr, ptr %32, align 8, !tbaa !17
  %34 = icmp ne ptr %33, null
  br i1 %34, label %37, label %35

35:                                               ; preds = %24
  %36 = load ptr, ptr %4, align 8, !tbaa !10
  call void @ARKodeSPRKTable_Free(ptr noundef %36)
  store ptr null, ptr %2, align 8
  store i32 1, ptr %5, align 4
  br label %42

37:                                               ; preds = %24
  %38 = load i32, ptr %3, align 4, !tbaa !3
  %39 = load ptr, ptr %4, align 8, !tbaa !10
  %40 = getelementptr inbounds nuw %struct.ARKodeSPRKTableMem, ptr %39, i32 0, i32 1
  store i32 %38, ptr %40, align 4, !tbaa !12
  %41 = load ptr, ptr %4, align 8, !tbaa !10
  store ptr %41, ptr %2, align 8
  store i32 1, ptr %5, align 4
  br label %42

42:                                               ; preds = %37, %35, %22, %9
  call void @llvm.lifetime.end.p0(i64 8, ptr %4) #8
  %43 = load ptr, ptr %2, align 8
  ret ptr %43
}

; Function Attrs: nounwind uwtable
define internal ptr @arkodeSymplecticMcLachlan3() #0 {
  %1 = alloca ptr, align 8
  %2 = alloca double, align 8
  %3 = alloca double, align 8
  %4 = alloca double, align 8
  %5 = alloca ptr, align 8
  %6 = alloca i32, align 4
  call void @llvm.lifetime.start.p0(i64 8, ptr %2) #8
  store double 0.000000e+00, ptr %2, align 8, !tbaa !15
  call void @llvm.lifetime.start.p0(i64 8, ptr %3) #8
  store double 0.000000e+00, ptr %3, align 8, !tbaa !15
  call void @llvm.lifetime.start.p0(i64 8, ptr %4) #8
  store double 0.000000e+00, ptr %4, align 8, !tbaa !15
  call void @llvm.lifetime.start.p0(i64 8, ptr %5) #8
  %7 = call ptr @ARKodeSPRKTable_Alloc(i32 noundef 3)
  store ptr %7, ptr %5, align 8, !tbaa !10
  %8 = load ptr, ptr %5, align 8, !tbaa !10
  %9 = icmp ne ptr %8, null
  br i1 %9, label %11, label %10

10:                                               ; preds = %0
  store ptr null, ptr %1, align 8
  store i32 1, ptr %6, align 4
  br label %144

11:                                               ; preds = %0
  %12 = load ptr, ptr %5, align 8, !tbaa !10
  %13 = getelementptr inbounds nuw %struct.ARKodeSPRKTableMem, ptr %12, i32 0, i32 0
  store i32 3, ptr %13, align 8, !tbaa !14
  %14 = load ptr, ptr %5, align 8, !tbaa !10
  %15 = getelementptr inbounds nuw %struct.ARKodeSPRKTableMem, ptr %14, i32 0, i32 1
  store i32 3, ptr %15, align 4, !tbaa !12
  %16 = call double @sqrt(double noundef 3.000000e+00) #8, !tbaa !3
  %17 = fmul double 9.000000e+00, %16
  %18 = fdiv double 1.000000e+00, %17
  %19 = fsub double 0x3FB2F684BDA12F68, %18
  %20 = call double @SUNRpowerR(double noundef %19, double noundef 0x3FD5555555555555)
  %21 = fneg double %20
  store double %21, ptr %4, align 8, !tbaa !15
  %22 = load double, ptr %4, align 8, !tbaa !15
  %23 = fmul double 9.000000e+00, %22
  %24 = fdiv double 1.000000e+00, %23
  %25 = fadd double 0xBFE5555555555555, %24
  %26 = load double, ptr %4, align 8, !tbaa !15
  %27 = fadd double %25, %26
  store double %27, ptr %2, align 8, !tbaa !15
  %28 = load double, ptr %2, align 8, !tbaa !15
  %29 = load double, ptr %2, align 8, !tbaa !15
  %30 = call double @llvm.fmuladd.f64(double %28, double %29, double 1.000000e+00)
  %31 = fdiv double %30, 4.000000e+00
  store double %31, ptr %3, align 8, !tbaa !15
  %32 = load double, ptr %3, align 8, !tbaa !15
  %33 = fmul double 9.000000e+00, %32
  %34 = fdiv double 1.000000e+00, %33
  %35 = load double, ptr %2, align 8, !tbaa !15
  %36 = fdiv double %35, 2.000000e+00
  %37 = fsub double %34, %36
  %38 = load double, ptr %3, align 8, !tbaa !15
  %39 = fcmp ole double %38, 0.000000e+00
  br i1 %39, label %40, label %41

40:                                               ; preds = %11
  br label %44

41:                                               ; preds = %11
  %42 = load double, ptr %3, align 8, !tbaa !15
  %43 = call double @sqrt(double noundef %42) #8, !tbaa !3
  br label %44

44:                                               ; preds = %41, %40
  %45 = phi double [ 0.000000e+00, %40 ], [ %43, %41 ]
  %46 = fadd double %37, %45
  %47 = fcmp ole double %46, 0.000000e+00
  br i1 %47, label %48, label %49

48:                                               ; preds = %44
  br label %66

49:                                               ; preds = %44
  %50 = load double, ptr %3, align 8, !tbaa !15
  %51 = fmul double 9.000000e+00, %50
  %52 = fdiv double 1.000000e+00, %51
  %53 = load double, ptr %2, align 8, !tbaa !15
  %54 = fdiv double %53, 2.000000e+00
  %55 = fsub double %52, %54
  %56 = load double, ptr %3, align 8, !tbaa !15
  %57 = fcmp ole double %56, 0.000000e+00
  br i1 %57, label %58, label %59

58:                                               ; preds = %49
  br label %62

59:                                               ; preds = %49
  %60 = load double, ptr %3, align 8, !tbaa !15
  %61 = call double @sqrt(double noundef %60) #8, !tbaa !3
  br label %62

62:                                               ; preds = %59, %58
  %63 = phi double [ 0.000000e+00, %58 ], [ %61, %59 ]
  %64 = fadd double %55, %63
  %65 = call double @sqrt(double noundef %64) #8, !tbaa !3
  br label %66

66:                                               ; preds = %62, %48
  %67 = phi double [ 0.000000e+00, %48 ], [ %65, %62 ]
  %68 = load double, ptr %3, align 8, !tbaa !15
  %69 = fcmp ole double %68, 0.000000e+00
  br i1 %69, label %70, label %71

70:                                               ; preds = %66
  br label %74

71:                                               ; preds = %66
  %72 = load double, ptr %3, align 8, !tbaa !15
  %73 = call double @sqrt(double noundef %72) #8, !tbaa !3
  br label %74

74:                                               ; preds = %71, %70
  %75 = phi double [ 0.000000e+00, %70 ], [ %73, %71 ]
  %76 = fmul double 3.000000e+00, %75
  %77 = fdiv double 1.000000e+00, %76
  %78 = fsub double %67, %77
  %79 = load ptr, ptr %5, align 8, !tbaa !10
  %80 = getelementptr inbounds nuw %struct.ARKodeSPRKTableMem, ptr %79, i32 0, i32 2
  %81 = load ptr, ptr %80, align 8, !tbaa !17
  %82 = getelementptr inbounds double, ptr %81, i64 0
  store double %78, ptr %82, align 8, !tbaa !15
  %83 = load ptr, ptr %5, align 8, !tbaa !10
  %84 = getelementptr inbounds nuw %struct.ARKodeSPRKTableMem, ptr %83, i32 0, i32 2
  %85 = load ptr, ptr %84, align 8, !tbaa !17
  %86 = getelementptr inbounds double, ptr %85, i64 0
  %87 = load double, ptr %86, align 8, !tbaa !15
  %88 = fdiv double 2.500000e-01, %87
  %89 = load ptr, ptr %5, align 8, !tbaa !10
  %90 = getelementptr inbounds nuw %struct.ARKodeSPRKTableMem, ptr %89, i32 0, i32 2
  %91 = load ptr, ptr %90, align 8, !tbaa !17
  %92 = getelementptr inbounds double, ptr %91, i64 0
  %93 = load double, ptr %92, align 8, !tbaa !15
  %94 = fdiv double %93, 2.000000e+00
  %95 = fsub double %88, %94
  %96 = load ptr, ptr %5, align 8, !tbaa !10
  %97 = getelementptr inbounds nuw %struct.ARKodeSPRKTableMem, ptr %96, i32 0, i32 2
  %98 = load ptr, ptr %97, align 8, !tbaa !17
  %99 = getelementptr inbounds double, ptr %98, i64 1
  store double %95, ptr %99, align 8, !tbaa !15
  %100 = load ptr, ptr %5, align 8, !tbaa !10
  %101 = getelementptr inbounds nuw %struct.ARKodeSPRKTableMem, ptr %100, i32 0, i32 2
  %102 = load ptr, ptr %101, align 8, !tbaa !17
  %103 = getelementptr inbounds double, ptr %102, i64 0
  %104 = load double, ptr %103, align 8, !tbaa !15
  %105 = fsub double 1.000000e+00, %104
  %106 = load ptr, ptr %5, align 8, !tbaa !10
  %107 = getelementptr inbounds nuw %struct.ARKodeSPRKTableMem, ptr %106, i32 0, i32 2
  %108 = load ptr, ptr %107, align 8, !tbaa !17
  %109 = getelementptr inbounds double, ptr %108, i64 1
  %110 = load double, ptr %109, align 8, !tbaa !15
  %111 = fsub double %105, %110
  %112 = load ptr, ptr %5, align 8, !tbaa !10
  %113 = getelementptr inbounds nuw %struct.ARKodeSPRKTableMem, ptr %112, i32 0, i32 2
  %114 = load ptr, ptr %113, align 8, !tbaa !17
  %115 = getelementptr inbounds double, ptr %114, i64 2
  store double %111, ptr %115, align 8, !tbaa !15
  %116 = load ptr, ptr %5, align 8, !tbaa !10
  %117 = getelementptr inbounds nuw %struct.ARKodeSPRKTableMem, ptr %116, i32 0, i32 2
  %118 = load ptr, ptr %117, align 8, !tbaa !17
  %119 = getelementptr inbounds double, ptr %118, i64 2
  %120 = load double, ptr %119, align 8, !tbaa !15
  %121 = load ptr, ptr %5, align 8, !tbaa !10
  %122 = getelementptr inbounds nuw %struct.ARKodeSPRKTableMem, ptr %121, i32 0, i32 3
  %123 = load ptr, ptr %122, align 8, !tbaa !18
  %124 = getelementptr inbounds double, ptr %123, i64 0
  store double %120, ptr %124, align 8, !tbaa !15
  %125 = load ptr, ptr %5, align 8, !tbaa !10
  %126 = getelementptr inbounds nuw %struct.ARKodeSPRKTableMem, ptr %125, i32 0, i32 2
  %127 = load ptr, ptr %126, align 8, !tbaa !17
  %128 = getelementptr inbounds double, ptr %127, i64 1
  %129 = load double, ptr %128, align 8, !tbaa !15
  %130 = load ptr, ptr %5, align 8, !tbaa !10
  %131 = getelementptr inbounds nuw %struct.ARKodeSPRKTableMem, ptr %130, i32 0, i32 3
  %132 = load ptr, ptr %131, align 8, !tbaa !18
  %133 = getelementptr inbounds double, ptr %132, i64 1
  store double %129, ptr %133, align 8, !tbaa !15
  %134 = load ptr, ptr %5, align 8, !tbaa !10
  %135 = getelementptr inbounds nuw %struct.ARKodeSPRKTableMem, ptr %134, i32 0, i32 2
  %136 = load ptr, ptr %135, align 8, !tbaa !17
  %137 = getelementptr inbounds double, ptr %136, i64 0
  %138 = load double, ptr %137, align 8, !tbaa !15
  %139 = load ptr, ptr %5, align 8, !tbaa !10
  %140 = getelementptr inbounds nuw %struct.ARKodeSPRKTableMem, ptr %139, i32 0, i32 3
  %141 = load ptr, ptr %140, align 8, !tbaa !18
  %142 = getelementptr inbounds double, ptr %141, i64 2
  store double %138, ptr %142, align 8, !tbaa !15
  %143 = load ptr, ptr %5, align 8, !tbaa !10
  store ptr %143, ptr %1, align 8
  store i32 1, ptr %6, align 4
  br label %144

144:                                              ; preds = %74, %10
  call void @llvm.lifetime.end.p0(i64 8, ptr %5) #8
  call void @llvm.lifetime.end.p0(i64 8, ptr %4) #8
  call void @llvm.lifetime.end.p0(i64 8, ptr %3) #8
  call void @llvm.lifetime.end.p0(i64 8, ptr %2) #8
  %145 = load ptr, ptr %1, align 8
  ret ptr %145
}