; Function Attrs: nounwind uwtable
define internal fastcc noalias noundef ptr @arkodeSymplecticMcLachlan3() unnamed_addr #5 {
  %calloc.i = tail call dereferenceable_or_null(24) ptr @calloc(i64 1, i64 24)
  %.not.i = icmp eq ptr %calloc.i, null
  br i1 %.not.i, label %ARKodeSPRKTable_Alloc.exit.thread, label %1

1:                                                ; preds = %0
  %2 = tail call noalias dereferenceable_or_null(24) ptr @malloc(i64 noundef 24) #13
  %3 = getelementptr inbounds nuw i8, ptr %calloc.i, i64 16
  store ptr %2, ptr %3, align 8, !tbaa !3
  %.not14.i = icmp eq ptr %2, null
  br i1 %.not14.i, label %ARKodeSPRKTable_Free.exit.i, label %4

ARKodeSPRKTable_Free.exit.i:                      ; preds = %1
  tail call void @free(ptr noundef nonnull %calloc.i) #14
  br label %ARKodeSPRKTable_Alloc.exit.thread

4:                                                ; preds = %1
  %5 = tail call noalias dereferenceable_or_null(24) ptr @malloc(i64 noundef 24) #13
  %6 = getelementptr inbounds nuw i8, ptr %calloc.i, i64 8
  store ptr %5, ptr %6, align 8, !tbaa !10
  %.not15.i = icmp eq ptr %5, null
  br i1 %.not15.i, label %ARKodeSPRKTable_Free.exit19.i, label %7

ARKodeSPRKTable_Free.exit19.i:                    ; preds = %4
  tail call void @free(ptr noundef nonnull %2) #14
  tail call void @free(ptr noundef nonnull %calloc.i) #14
  br label %ARKodeSPRKTable_Alloc.exit.thread

7:                                                ; preds = %4
  %8 = getelementptr inbounds nuw i8, ptr %calloc.i, i64 4
  store i32 3, ptr %calloc.i, align 8, !tbaa !12
  store i32 3, ptr %8, align 4, !tbaa !11
  %9 = tail call double @SUNRpowerR(double noundef 0x3F84530EA9080FC8, double noundef 0x3FD5555555555555) #14
  %10 = fmul double %9, 9.000000e+00
  %11 = fdiv double 1.000000e+00, %10
  %12 = fsub double 0xBFE5555555555555, %11
  %13 = fsub double %12, %9
  %14 = tail call double @llvm.fmuladd.f64(double %13, double %13, double 1.000000e+00)
  %15 = fmul double %14, 2.500000e-01
  %16 = fmul double %15, 9.000000e+00
  %17 = fdiv double 1.000000e+00, %16
  %18 = fmul double %13, 5.000000e-01
  %19 = fsub double %17, %18
  %20 = fcmp ugt double %15, 0.000000e+00
  br i1 %20, label %.thread, label %21

21:                                               ; preds = %7
  %22 = fcmp ugt double %19, 0.000000e+00
  br i1 %22, label %.thread39, label %.thread38

.thread39:                                        ; preds = %21
  %23 = tail call double @sqrt(double noundef %19) #14, !tbaa !15
  br label %.thread38

.thread:                                          ; preds = %7
  %24 = tail call double @sqrt(double noundef %15) #14, !tbaa !15
  %25 = fadd double %19, %24
  %26 = fcmp ugt double %25, 0.000000e+00
  br i1 %26, label %27, label %.thread37

27:                                               ; preds = %.thread
  %28 = tail call double @sqrt(double noundef %15) #14, !tbaa !15
  %29 = fadd double %19, %28
  %30 = tail call double @sqrt(double noundef %29) #14, !tbaa !15
  br label %.thread37

.thread37:                                        ; preds = %27, %.thread
  %31 = phi double [ %30, %27 ], [ 0.000000e+00, %.thread ]
  %32 = tail call double @sqrt(double noundef %15) #14, !tbaa !15
  %33 = fmul double %32, 3.000000e+00
  br label %.thread38

.thread38:                                        ; preds = %21, %.thread39, %.thread37
  %34 = phi double [ %31, %.thread37 ], [ %23, %.thread39 ], [ 0.000000e+00, %21 ]
  %35 = phi double [ %33, %.thread37 ], [ 0.000000e+00, %.thread39 ], [ 0.000000e+00, %21 ]
  %36 = fdiv double 1.000000e+00, %35
  %37 = fsub double %34, %36
  store double %37, ptr %5, align 8, !tbaa !13
  %38 = fdiv double 2.500000e-01, %37
  %39 = fmul double %37, 5.000000e-01
  %40 = fsub double %38, %39
  %41 = getelementptr inbounds nuw i8, ptr %5, i64 8
  store double %40, ptr %41, align 8, !tbaa !13
  %42 = fsub double 1.000000e+00, %37
  %43 = fsub double %42, %40
  %44 = getelementptr inbounds nuw i8, ptr %5, i64 16
  store double %43, ptr %44, align 8, !tbaa !13
  store double %43, ptr %2, align 8, !tbaa !13
  %45 = getelementptr inbounds nuw i8, ptr %2, i64 8
  store double %40, ptr %45, align 8, !tbaa !13
  %46 = getelementptr inbounds nuw i8, ptr %2, i64 16
  store double %37, ptr %46, align 8, !tbaa !13
  br label %ARKodeSPRKTable_Alloc.exit.thread

ARKodeSPRKTable_Alloc.exit.thread:                ; preds = %0, %ARKodeSPRKTable_Free.exit.i, %ARKodeSPRKTable_Free.exit19.i, %.thread38
  %.0 = phi ptr [ %calloc.i, %.thread38 ], [ null, %ARKodeSPRKTable_Free.exit19.i ], [ null, %ARKodeSPRKTable_Free.exit.i ], [ null, %0 ]
  ret ptr %.0
}